target datalayout = "e-m:e-p270:32:32-p271:32:32-p272:64:64-i64:64-i128:128-f80:128-n8:16:32:64-S128"
target triple = "x86_64-pc-linux-gnu"

%"class.std::shared_ptr" = type { %"class.std::__shared_ptr" }
%"class.std::__shared_ptr" = type { ptr, %"class.std::__shared_count" }
%"class.std::__shared_count" = type { ptr }
%"class.std::vector" = type { %"struct.std::_Vector_base" }
%"struct.std::_Vector_base" = type { %"struct.std::_Vector_base<std::__cxx11::basic_string<char>, std::allocator<std::__cxx11::basic_string<char>>>::_Vector_impl" }
%"struct.std::_Vector_base<std::__cxx11::basic_string<char>, std::allocator<std::__cxx11::basic_string<char>>>::_Vector_impl" = type { %"struct.std::_Vector_base<std::__cxx11::basic_string<char>, std::allocator<std::__cxx11::basic_string<char>>>::_Vector_impl_data" }
%"struct.std::_Vector_base<std::__cxx11::basic_string<char>, std::allocator<std::__cxx11::basic_string<char>>>::_Vector_impl_data" = type { ptr, ptr, ptr }
%"class.std::vector.25" = type { %"struct.std::_Vector_base.26" }
%"struct.std::_Vector_base.26" = type { %"struct.std::_Vector_base<std::vector<long>, std::allocator<std::vector<long>>>::_Vector_impl" }
%"struct.std::_Vector_base<std::vector<long>, std::allocator<std::vector<long>>>::_Vector_impl" = type { %"struct.std::_Vector_base<std::vector<long>, std::allocator<std::vector<long>>>::_Vector_impl_data" }
%"struct.std::_Vector_base<std::vector<long>, std::allocator<std::vector<long>>>::_Vector_impl_data" = type { ptr, ptr, ptr }
%"class.std::vector.31" = type { %"struct.std::_Vector_base.32" }
%"struct.std::_Vector_base.32" = type { %"struct.std::_Vector_base<long, std::allocator<long>>::_Vector_impl" }
%"struct.std::_Vector_base<long, std::allocator<long>>::_Vector_impl" = type { %"struct.std::_Vector_base<long, std::allocator<long>>::_Vector_impl_data" }
%"struct.std::_Vector_base<long, std::allocator<long>>::_Vector_impl_data" = type { ptr, ptr, ptr }
%"class.open_spiel::tarok::TarokState" = type { %"class.open_spiel::State.base", %"class.std::shared_ptr.46", i32, i32, i32, %"class.std::vector.31", %"class.std::vector.25", %"class.std::vector.31", i32, ptr, i64, i8, i32, %"class.std::vector.25", %"class.std::vector.31", i32, %"class.std::vector" }
%"class.open_spiel::State.base" = type <{ ptr, %"class.std::shared_ptr", i32, i32, %"class.std::vector.41", i32 }>
%"class.std::vector.41" = type { %"struct.std::_Vector_base.42" }
%"struct.std::_Vector_base.42" = type { %"struct.std::_Vector_base<open_spiel::State::PlayerAction, std::allocator<open_spiel::State::PlayerAction>>::_Vector_impl" }
%"struct.std::_Vector_base<open_spiel::State::PlayerAction, std::allocator<open_spiel::State::PlayerAction>>::_Vector_impl" = type { %"struct.std::_Vector_base<open_spiel::State::PlayerAction, std::allocator<open_spiel::State::PlayerAction>>::_Vector_impl_data" }
%"struct.std::_Vector_base<open_spiel::State::PlayerAction, std::allocator<open_spiel::State::PlayerAction>>::_Vector_impl_data" = type { ptr, ptr, ptr }
%"class.std::shared_ptr.46" = type { %"class.std::__shared_ptr.47" }
%"class.std::__shared_ptr.47" = type { ptr, %"class.std::__shared_count" }
%"class.open_spiel::State" = type <{ ptr, %"class.std::shared_ptr", i32, i32, %"class.std::vector.41", i32, [4 x i8] }>

@.str.94 = private unnamed_addr constant [74 x i8] c"vector::_M_range_check: __n (which is %zu) >= this->size() (which is %zu)\00", align 1

; Function Attrs: mustprogress nounwind uwtable
define linkonce_odr noundef i64 @_ZNKSt6vectorIlSaIlEE4sizeEv(ptr noundef nonnull align 8 dereferenceable(24) %0) #4 comdat align 2 {
  %2 = alloca ptr, align 8
  store ptr %0, ptr %2, align 8
  %3 = load ptr, ptr %2, align 8
  %4 = getelementptr inbounds nuw %"struct.std::_Vector_base.32", ptr %3, i32 0, i32 0
  %5 = getelementptr inbounds nuw %"struct.std::_Vector_base<long, std::allocator<long>>::_Vector_impl_data", ptr %4, i32 0, i32 1
  %6 = load ptr, ptr %5, align 8
  %7 = getelementptr inbounds nuw %"struct.std::_Vector_base.32", ptr %3, i32 0, i32 0
  %8 = getelementptr inbounds nuw %"struct.std::_Vector_base<long, std::allocator<long>>::_Vector_impl_data", ptr %7, i32 0, i32 0
  %9 = load ptr, ptr %8, align 8
  %10 = ptrtoint ptr %6 to i64
  %11 = ptrtoint ptr %9 to i64
  %12 = sub i64 %10, %11
  %13 = sdiv exact i64 %12, 8
  ret i64 %13
}

; Function Attrs: mustprogress nounwind uwtable
define linkonce_odr noundef nonnull align 8 dereferenceable(8) ptr @_ZNKSt6vectorIlSaIlEEixEm(ptr noundef nonnull align 8 dereferenceable(24) %0, i64 noundef %1) #4 comdat align 2 {
  %3 = alloca ptr, align 8
  %4 = alloca i64, align 8
  store ptr %0, ptr %3, align 8
  store i64 %1, ptr %4, align 8
  %5 = load ptr, ptr %3, align 8
  %6 = getelementptr inbounds nuw %"struct.std::_Vector_base.32", ptr %5, i32 0, i32 0
  %7 = getelementptr inbounds nuw %"struct.std::_Vector_base<long, std::allocator<long>>::_Vector_impl_data", ptr %6, i32 0, i32 0
  %8 = load ptr, ptr %7, align 8
  %9 = load i64, ptr %4, align 8
  %10 = getelementptr inbounds i64, ptr %8, i64 %9
  ret ptr %10
}

; Function Attrs: mustprogress uwtable
define linkonce_odr void @_ZNKSt6vectorIlSaIlEE14_M_range_checkEm(ptr noundef nonnull align 8 dereferenceable(24) %0, i64 noundef %1) #5 comdat align 2 {
  %3 = alloca ptr, align 8
  %4 = alloca i64, align 8
  store ptr %0, ptr %3, align 8
  store i64 %1, ptr %4, align 8
  %5 = load ptr, ptr %3, align 8
  %6 = load i64, ptr %4, align 8
  %7 = call noundef i64 @_ZNKSt6vectorIlSaIlEE4sizeEv(ptr noundef nonnull align 8 dereferenceable(24) %5) #3
  %8 = icmp uge i64 %6, %7
  br i1 %8, label %9, label %12

9:                                                ; preds = %2
  %10 = load i64, ptr %4, align 8
  %11 = call noundef i64 @_ZNKSt6vectorIlSaIlEE4sizeEv(ptr noundef nonnull align 8 dereferenceable(24) %5) #3
  call void (ptr, ...) @_ZSt24__throw_out_of_range_fmtPKcz(ptr noundef @.str.94, i64 noundef %10, i64 noundef %11) #18
  unreachable

12:                                               ; preds = %2
  ret void
}

; Function Attrs: mustprogress uwtable
define linkonce_odr noundef nonnull align 8 dereferenceable(8) ptr @_ZNKSt6vectorIlSaIlEE2atEm(ptr noundef nonnull align 8 dereferenceable(24) %0, i64 noundef %1) #5 comdat align 2 {
  %3 = alloca ptr, align 8
  %4 = alloca i64, align 8
  store ptr %0, ptr %3, align 8
  store i64 %1, ptr %4, align 8
  %5 = load ptr, ptr %3, align 8
  %6 = load i64, ptr %4, align 8
  call void @_ZNKSt6vectorIlSaIlEE14_M_range_checkEm(ptr noundef nonnull align 8 dereferenceable(24) %5, i64 noundef %6)
  %7 = load i64, ptr %4, align 8
  %8 = call noundef nonnull align 8 dereferenceable(8) ptr @_ZNKSt6vectorIlSaIlEEixEm(ptr noundef nonnull align 8 dereferenceable(24) %5, i64 noundef %7) #3
  ret ptr %8
}

; Function Attrs: mustprogress uwtable
define noundef zeroext i1 @_ZNK10open_spiel5tarok10TarokState32AllButCurrentPlayerPassedBiddingEv(ptr noundef nonnull align 8 dereferenceable(280) %0) #5 align 2 {
  %2 = alloca i1, align 1
  %3 = alloca ptr, align 8
  %4 = alloca i32, align 4
  store ptr %0, ptr %3, align 8
  %5 = load ptr, ptr %3, align 8
  store i32 0, ptr %4, align 4
  br label %6

6:                                                ; preds = %26, %1
  %7 = load i32, ptr %4, align 4
  %8 = getelementptr inbounds nuw %"class.open_spiel::State", ptr %5, i32 0, i32 3
  %9 = load i32, ptr %8, align 4
  %10 = icmp slt i32 %7, %9
  br i1 %10, label %11, label %29

11:                                               ; preds = %6
  %12 = load i32, ptr %4, align 4
  %13 = getelementptr inbounds nuw %"class.open_spiel::tarok::TarokState", ptr %5, i32 0, i32 4
  %14 = load i32, ptr %13, align 8
  %15 = icmp eq i32 %12, %14
  br i1 %15, label %16, label %17

16:                                               ; preds = %11
  br label %26

17:                                               ; preds = %11
  %18 = getelementptr inbounds nuw %"class.open_spiel::tarok::TarokState", ptr %5, i32 0, i32 7
  %19 = load i32, ptr %4, align 4
  %20 = sext i32 %19 to i64
  %21 = call noundef nonnull align 8 dereferenceable(8) ptr @_ZNKSt6vectorIlSaIlEE2atEm(ptr noundef nonnull align 8 dereferenceable(24) %18, i64 noundef %20)
  %22 = load i64, ptr %21, align 8
  %23 = icmp ne i64 %22, 0
  br i1 %23, label %24, label %25

24:                                               ; preds = %17
  store i1 false, ptr %2, align 1
  br label %30

25:                                               ; preds = %17
  br label %26

26:                                               ; preds = %25, %16
  %27 = load i32, ptr %4, align 4
  %28 = add nsw i32 %27, 1
  store i32 %28, ptr %4, align 4
  br label %6, !llvm.loop !11

29:                                               ; preds = %6
  store i1 true, ptr %2, align 1
  br label %30

30:                                               ; preds = %29, %24
  %31 = load i1, ptr %2, align 1
  ret i1 %31
}