; Function Attrs: mustprogress uwtable
define noundef zeroext i1 @_ZNK10open_spiel5tarok10TarokState32AllButCurrentPlayerPassedBiddingEv(ptr noundef nonnull readonly align 8 captures(none) dereferenceable(280) %0) local_unnamed_addr #5 align 2 {
  %2 = getelementptr inbounds nuw i8, ptr %0, i64 28
  %3 = load i32, ptr %2, align 4
  %4 = icmp slt i32 %3, 1
  br i1 %4, label %._crit_edge, label %.lr.ph

.lr.ph:                                           ; preds = %1
  %5 = getelementptr inbounds nuw i8, ptr %0, i64 88
  %6 = load i32, ptr %5, align 8
  %7 = getelementptr inbounds nuw i8, ptr %0, i64 144
  %8 = getelementptr inbounds nuw i8, ptr %0, i64 152
  %9 = load ptr, ptr %8, align 8
  %10 = load ptr, ptr %7, align 8
  %11 = ptrtoint ptr %9 to i64
  %12 = ptrtoint ptr %10 to i64
  %13 = sub i64 %11, %12
  %14 = ashr exact i64 %13, 3
  %15 = zext i32 %6 to i64
  %wide.trip.count = zext nneg i32 %3 to i64
  br label %16

16:                                               ; preds = %.lr.ph, %22
  %indvars.iv = phi i64 [ 0, %.lr.ph ], [ %indvars.iv.next, %22 ]
  %17 = icmp eq i64 %indvars.iv, %15
  br i1 %17, label %22, label %18

18:                                               ; preds = %16
  %.not.i.i = icmp ugt i64 %14, %indvars.iv
  br i1 %.not.i.i, label %_ZNKSt6vectorIlSaIlEE2atEm.exit, label %19

19:                                               ; preds = %18
  tail call void (ptr, ...) @_ZSt24__throw_out_of_range_fmtPKcz(ptr noundef nonnull @.str.94, i64 noundef %indvars.iv, i64 noundef %14) #31
  unreachable

_ZNKSt6vectorIlSaIlEE2atEm.exit:                  ; preds = %18
  %20 = getelementptr inbounds nuw i64, ptr %10, i64 %indvars.iv
  %21 = load i64, ptr %20, align 8
  %.not = icmp eq i64 %21, 0
  br i1 %.not, label %22, label %._crit_edge

22:                                               ; preds = %_ZNKSt6vectorIlSaIlEE2atEm.exit, %16
  %indvars.iv.next = add nuw nsw i64 %indvars.iv, 1
  %exitcond.not = icmp eq i64 %indvars.iv.next, %wide.trip.count
  br i1 %exitcond.not, label %._crit_edge, label %16, !llvm.loop !49

._crit_edge:                                      ; preds = %_ZNKSt6vectorIlSaIlEE2atEm.exit, %22, %1
  %.lcssa7 = phi i1 [ true, %1 ], [ true, %22 ], [ false, %_ZNKSt6vectorIlSaIlEE2atEm.exit ]
  ret i1 %.lcssa7
}